target datalayout = "e-m:e-p270:32:32-p271:32:32-p272:64:64-i64:64-i128:128-f80:128-n8:16:32:64-S128"
target triple = "x86_64-pc-linux-gnu"

%"class.llvm::DwarfExpression" = type { ptr, i8, ptr, %"class.llvm::SmallVector", i64, i32, i16, %"class.std::optional" }
%"class.llvm::SmallVector" = type { %"class.llvm::SmallVectorImpl", %"struct.llvm::SmallVectorStorage" }
%"class.llvm::SmallVectorImpl" = type { %"class.llvm::SmallVectorTemplateBase" }
%"class.llvm::SmallVectorTemplateBase" = type { %"class.llvm::SmallVectorTemplateCommon" }
%"class.llvm::SmallVectorTemplateCommon" = type { %"class.llvm::SmallVectorBase" }
%"class.llvm::SmallVectorBase" = type { ptr, i32, i32 }
%"struct.llvm::SmallVectorStorage" = type { [32 x i8] }
%"class.std::optional" = type { %"struct.std::_Optional_base" }
%"struct.std::_Optional_base" = type { %"struct.std::_Optional_payload" }
%"struct.std::_Optional_payload" = type { %"struct.std::_Optional_payload_base" }
%"struct.std::_Optional_payload_base" = type { %"union.std::_Optional_payload_base<unsigned char>::_Storage", i8 }
%"union.std::_Optional_payload_base<unsigned char>::_Storage" = type { %"struct.std::_Optional_payload_base<unsigned char>::_Empty_byte" }
%"struct.std::_Optional_payload_base<unsigned char>::_Empty_byte" = type { i8 }

; Function Attrs: mustprogress nounwind uwtable
define linkonce_odr hidden noundef i64 @_ZNSt14numeric_limitsImE3maxEv() #0 comdat align 2 {
  ret i64 -1
}

; Function Attrs: mustprogress nounwind uwtable
define dso_local void @_ZN4llvm15DwarfExpression10emitConstuEm(ptr noundef nonnull align 8 dereferenceable(88) %0, i64 noundef %1) #0 align 2 {
  %3 = alloca ptr, align 8
  %4 = alloca i64, align 8
  store ptr %0, ptr %3, align 8
  store i64 %1, ptr %4, align 8
  %5 = load ptr, ptr %3, align 8
  %6 = load i64, ptr %4, align 8
  %7 = icmp ult i64 %6, 32
  br i1 %7, label %8, label %15

8:                                                ; preds = %2
  %9 = load i64, ptr %4, align 8
  %10 = add i64 48, %9
  %11 = trunc i64 %10 to i8
  %12 = load ptr, ptr %5, align 8
  %13 = getelementptr inbounds ptr, ptr %12, i64 0
  %14 = load ptr, ptr %13, align 8
  call void %14(ptr noundef nonnull align 8 dereferenceable(88) %5, i8 noundef zeroext %11, ptr noundef null)
  br label %35

15:                                               ; preds = %2
  %16 = load i64, ptr %4, align 8
  %17 = call noundef i64 @_ZNSt14numeric_limitsImE3maxEv() #10
  %18 = icmp eq i64 %16, %17
  br i1 %18, label %19, label %26

19:                                               ; preds = %15
  %20 = load ptr, ptr %5, align 8
  %21 = getelementptr inbounds ptr, ptr %20, i64 0
  %22 = load ptr, ptr %21, align 8
  call void %22(ptr noundef nonnull align 8 dereferenceable(88) %5, i8 noundef zeroext 48, ptr noundef null)
  %23 = load ptr, ptr %5, align 8
  %24 = getelementptr inbounds ptr, ptr %23, i64 0
  %25 = load ptr, ptr %24, align 8
  call void %25(ptr noundef nonnull align 8 dereferenceable(88) %5, i8 noundef zeroext 32, ptr noundef null)
  br label %34

26:                                               ; preds = %15
  %27 = load ptr, ptr %5, align 8
  %28 = getelementptr inbounds ptr, ptr %27, i64 0
  %29 = load ptr, ptr %28, align 8
  call void %29(ptr noundef nonnull align 8 dereferenceable(88) %5, i8 noundef zeroext 16, ptr noundef null)
  %30 = load i64, ptr %4, align 8
  %31 = load ptr, ptr %5, align 8
  %32 = getelementptr inbounds ptr, ptr %31, i64 2
  %33 = load ptr, ptr %32, align 8
  call void %33(ptr noundef nonnull align 8 dereferenceable(88) %5, i64 noundef %30)
  br label %34

34:                                               ; preds = %26, %19
  br label %35

35:                                               ; preds = %34, %8
  ret void
}

; Function Attrs: mustprogress nounwind uwtable
define dso_local void @_ZN4llvm15DwarfExpression6addAndEj(ptr noundef nonnull align 8 dereferenceable(88) %0, i32 noundef %1) #0 align 2 {
  %3 = alloca ptr, align 8
  %4 = alloca i32, align 4
  store ptr %0, ptr %3, align 8
  store i32 %1, ptr %4, align 4
  %5 = load ptr, ptr %3, align 8
  %6 = load i32, ptr %4, align 4
  %7 = zext i32 %6 to i64
  call void @_ZN4llvm15DwarfExpression10emitConstuEm(ptr noundef nonnull align 8 dereferenceable(88) %5, i64 noundef %7)
  %8 = load ptr, ptr %5, align 8
  %9 = getelementptr inbounds ptr, ptr %8, i64 0
  %10 = load ptr, ptr %9, align 8
  call void %10(ptr noundef nonnull align 8 dereferenceable(88) %5, i8 noundef zeroext 26, ptr noundef null)
  ret void
}

; Function Attrs: mustprogress nounwind uwtable
define dso_local void @_ZN4llvm15DwarfExpression6addShrEj(ptr noundef nonnull align 8 dereferenceable(88) %0, i32 noundef %1) #0 align 2 {
  %3 = alloca ptr, align 8
  %4 = alloca i32, align 4
  store ptr %0, ptr %3, align 8
  store i32 %1, ptr %4, align 4
  %5 = load ptr, ptr %3, align 8
  %6 = load i32, ptr %4, align 4
  %7 = zext i32 %6 to i64
  call void @_ZN4llvm15DwarfExpression10emitConstuEm(ptr noundef nonnull align 8 dereferenceable(88) %5, i64 noundef %7)
  %8 = load ptr, ptr %5, align 8
  %9 = getelementptr inbounds ptr, ptr %8, i64 0
  %10 = load ptr, ptr %9, align 8
  call void %10(ptr noundef nonnull align 8 dereferenceable(88) %5, i8 noundef zeroext 37, ptr noundef null)
  ret void
}

; Function Attrs: mustprogress nounwind uwtable
define dso_local void @_ZN4llvm15DwarfExpression15maskSubRegisterEv(ptr noundef nonnull align 8 dereferenceable(88) %0) #0 align 2 {
  %2 = alloca ptr, align 8
  %3 = alloca i64, align 8
  store ptr %0, ptr %2, align 8
  %4 = load ptr, ptr %2, align 8
  %5 = getelementptr inbounds nuw %"class.llvm::DwarfExpression", ptr %4, i32 0, i32 5
  %6 = load i32, ptr %5, align 8
  %7 = lshr i32 %6, 16
  %8 = icmp sgt i32 %7, 0
  br i1 %8, label %9, label %13

9:                                                ; preds = %1
  %10 = getelementptr inbounds nuw %"class.llvm::DwarfExpression", ptr %4, i32 0, i32 5
  %11 = load i32, ptr %10, align 8
  %12 = lshr i32 %11, 16
  call void @_ZN4llvm15DwarfExpression6addShrEj(ptr noundef nonnull align 8 dereferenceable(88) %4, i32 noundef %12)
  br label %13

13:                                               ; preds = %9, %1
  %14 = getelementptr inbounds nuw %"class.llvm::DwarfExpression", ptr %4, i32 0, i32 5
  %15 = load i32, ptr %14, align 8
  %16 = and i32 %15, 65535
  %17 = zext i32 %16 to i64
  %18 = shl i64 1, %17
  %19 = sub i64 %18, 1
  store i64 %19, ptr %3, align 8
  %20 = load i64, ptr %3, align 8
  %21 = trunc i64 %20 to i32
  call void @_ZN4llvm15DwarfExpression6addAndEj(ptr noundef nonnull align 8 dereferenceable(88) %4, i32 noundef %21)
  ret void
}