; Function Attrs: mustprogress nounwind uwtable
define dso_local void @_ZN4llvm15DwarfExpression15maskSubRegisterEv(ptr noundef nonnull align 8 dereferenceable(88) %0) local_unnamed_addr #0 align 2 {
  %2 = getelementptr inbounds nuw i8, ptr %0, i64 80
  %3 = load i32, ptr %2, align 8
  %.not = icmp ult i32 %3, 65536
  br i1 %.not, label %21, label %4

4:                                                ; preds = %1
  %5 = lshr i32 %3, 16
  %6 = icmp ult i32 %3, 2097152
  br i1 %6, label %7, label %12

7:                                                ; preds = %4
  %8 = trunc nuw i32 %5 to i8
  %9 = add nuw nsw i8 %8, 48
  %10 = load ptr, ptr %0, align 8
  %11 = load ptr, ptr %10, align 8
  tail call void %11(ptr noundef nonnull align 8 dereferenceable(88) %0, i8 noundef zeroext %9, ptr noundef null) #13
  br label %_ZN4llvm15DwarfExpression6addShrEj.exit

12:                                               ; preds = %4
  %13 = zext nneg i32 %5 to i64
  %14 = load ptr, ptr %0, align 8
  %15 = load ptr, ptr %14, align 8
  tail call void %15(ptr noundef nonnull align 8 dereferenceable(88) %0, i8 noundef zeroext 16, ptr noundef null) #13
  %16 = load ptr, ptr %0, align 8
  %17 = getelementptr inbounds i8, ptr %16, i64 16
  %18 = load ptr, ptr %17, align 8
  tail call void %18(ptr noundef nonnull align 8 dereferenceable(88) %0, i64 noundef %13) #13
  br label %_ZN4llvm15DwarfExpression6addShrEj.exit

_ZN4llvm15DwarfExpression6addShrEj.exit:          ; preds = %7, %12
  %19 = load ptr, ptr %0, align 8
  %20 = load ptr, ptr %19, align 8
  tail call void %20(ptr noundef nonnull align 8 dereferenceable(88) %0, i8 noundef zeroext 37, ptr noundef null) #13
  %.pre = load i32, ptr %2, align 8
  br label %21

21:                                               ; preds = %_ZN4llvm15DwarfExpression6addShrEj.exit, %1
  %22 = phi i32 [ %.pre, %_ZN4llvm15DwarfExpression6addShrEj.exit ], [ %3, %1 ]
  %23 = and i32 %22, 65535
  %24 = zext nneg i32 %23 to i64
  %notmask = shl nsw i64 -1, %24
  %25 = trunc i64 %notmask to i32
  %26 = xor i32 %25, -1
  %27 = icmp ugt i32 %25, -33
  br i1 %27, label %28, label %33

28:                                               ; preds = %21
  %29 = trunc nuw i32 %26 to i8
  %30 = add nuw nsw i8 %29, 48
  %31 = load ptr, ptr %0, align 8
  %32 = load ptr, ptr %31, align 8
  tail call void %32(ptr noundef nonnull align 8 dereferenceable(88) %0, i8 noundef zeroext %30, ptr noundef null) #13
  br label %_ZN4llvm15DwarfExpression6addAndEj.exit

33:                                               ; preds = %21
  %34 = zext i32 %26 to i64
  %35 = load ptr, ptr %0, align 8
  %36 = load ptr, ptr %35, align 8
  tail call void %36(ptr noundef nonnull align 8 dereferenceable(88) %0, i8 noundef zeroext 16, ptr noundef null) #13
  %37 = load ptr, ptr %0, align 8
  %38 = getelementptr inbounds i8, ptr %37, i64 16
  %39 = load ptr, ptr %38, align 8
  tail call void %39(ptr noundef nonnull align 8 dereferenceable(88) %0, i64 noundef %34) #13
  br label %_ZN4llvm15DwarfExpression6addAndEj.exit

_ZN4llvm15DwarfExpression6addAndEj.exit:          ; preds = %28, %33
  %40 = load ptr, ptr %0, align 8
  %41 = load ptr, ptr %40, align 8
  tail call void %41(ptr noundef nonnull align 8 dereferenceable(88) %0, i8 noundef zeroext 26, ptr noundef null) #13
  ret void
}